; ModuleID = '21/331.c'
source_filename = "21/331.c"
target datalayout = "e-m:e-p270:32:32-p271:32:32-p272:64:64-i64:64-f80:128-n8:16:32:64-S128"
target triple = "x86_64-pc-linux-gnu"

@.str = private unnamed_addr constant [3 x i8] c"%d\00", align 1
@.str.1 = private unnamed_addr constant [4 x i8] c",%d\00", align 1

; Function Attrs: noinline nounwind uwtable
define dso_local void @main() #0 {
  %1 = alloca i32, align 4
  %2 = alloca [300 x i32], align 16
  %3 = alloca i32, align 4
  %4 = alloca i32, align 4
  %5 = alloca i32, align 4
  %6 = alloca double, align 8
  %7 = alloca double, align 8
  %8 = alloca [300 x double], align 16
  %9 = bitcast [300 x i32]* %2 to i8*
  call void @llvm.memset.p0i8.i64(i8* align 16 %9, i8 0, i64 1200, i1 false)
  store i32 0, i32* %5, align 4
  store double 0.000000e+00, double* %6, align 8
  %10 = bitcast [300 x double]* %8 to i8*
  call void @llvm.memset.p0i8.i64(i8* align 16 %10, i8 0, i64 2400, i1 false)
  %11 = call i32 (i8*, ...) @__isoc99_scanf(i8* getelementptr inbounds ([3 x i8], [3 x i8]* @.str, i64 0, i64 0), i32* %1)
  store i32 0, i32* %3, align 4
  br label %12

12:                                               ; preds = %27, %0
  %13 = load i32, i32* %3, align 4
  %14 = load i32, i32* %1, align 4
  %15 = icmp slt i32 %13, %14
  br i1 %15, label %16, label %30

16:                                               ; preds = %12
  %17 = load i32, i32* %3, align 4
  %18 = sext i32 %17 to i64
  %19 = getelementptr inbounds [300 x i32], [300 x i32]* %2, i64 0, i64 %18
  %20 = call i32 (i8*, ...) @__isoc99_scanf(i8* getelementptr inbounds ([3 x i8], [3 x i8]* @.str, i64 0, i64 0), i32* %19)
  %21 = load i32, i32* %5, align 4
  %22 = load i32, i32* %3, align 4
  %23 = sext i32 %22 to i64
  %24 = getelementptr inbounds [300 x i32], [300 x i32]* %2, i64 0, i64 %23
  %25 = load i32, i32* %24, align 4
  %26 = add nsw i32 %21, %25
  store i32 %26, i32* %5, align 4
  br label %27

27:                                               ; preds = %16
  %28 = load i32, i32* %3, align 4
  %29 = add nsw i32 %28, 1
  store i32 %29, i32* %3, align 4
  br label %12

30:                                               ; preds = %12
  %31 = load i32, i32* %5, align 4
  %32 = sitofp i32 %31 to double
  %33 = load i32, i32* %1, align 4
  %34 = sitofp i32 %33 to double
  %35 = fdiv double %32, %34
  store double %35, double* %7, align 8
  store i32 0, i32* %3, align 4
  br label %36

36:                                               ; preds = %64, %30
  %37 = load i32, i32* %3, align 4
  %38 = load i32, i32* %1, align 4
  %39 = icmp slt i32 %37, %38
  br i1 %39, label %40, label %67

40:                                               ; preds = %36
  %41 = load i32, i32* %3, align 4
  %42 = sext i32 %41 to i64
  %43 = getelementptr inbounds [300 x i32], [300 x i32]* %2, i64 0, i64 %42
  %44 = load i32, i32* %43, align 4
  %45 = sitofp i32 %44 to double
  %46 = load double, double* %7, align 8
  %47 = fsub double %45, %46
  %48 = call double @llvm.fabs.f64(double %47)
  %49 = load i32, i32* %3, align 4
  %50 = sext i32 %49 to i64
  %51 = getelementptr inbounds [300 x double], [300 x double]* %8, i64 0, i64 %50
  store double %48, double* %51, align 8
  %52 = load i32, i32* %3, align 4
  %53 = sext i32 %52 to i64
  %54 = getelementptr inbounds [300 x double], [300 x double]* %8, i64 0, i64 %53
  %55 = load double, double* %54, align 8
  %56 = load double, double* %6, align 8
  %57 = fcmp ogt double %55, %56
  br i1 %57, label %58, label %63

58:                                               ; preds = %40
  %59 = load i32, i32* %3, align 4
  %60 = sext i32 %59 to i64
  %61 = getelementptr inbounds [300 x double], [300 x double]* %8, i64 0, i64 %60
  %62 = load double, double* %61, align 8
  store double %62, double* %6, align 8
  br label %63

63:                                               ; preds = %58, %40
  br label %64

64:                                               ; preds = %63
  %65 = load i32, i32* %3, align 4
  %66 = add nsw i32 %65, 1
  store i32 %66, i32* %3, align 4
  br label %36

67:                                               ; preds = %36
  store i32 0, i32* %3, align 4
  br label %68

68:                                               ; preds = %87, %67
  %69 = load i32, i32* %3, align 4
  %70 = load i32, i32* %1, align 4
  %71 = icmp slt i32 %69, %70
  br i1 %71, label %72, label %90

72:                                               ; preds = %68
  %73 = load i32, i32* %3, align 4
  %74 = sext i32 %73 to i64
  %75 = getelementptr inbounds [300 x double], [300 x double]* %8, i64 0, i64 %74
  %76 = load double, double* %75, align 8
  %77 = load double, double* %6, align 8
  %78 = fcmp oeq double %76, %77
  br i1 %78, label %79, label %86

79:                                               ; preds = %72
  %80 = load i32, i32* %3, align 4
  store i32 %80, i32* %4, align 4
  %81 = load i32, i32* %3, align 4
  %82 = sext i32 %81 to i64
  %83 = getelementptr inbounds [300 x i32], [300 x i32]* %2, i64 0, i64 %82
  %84 = load i32, i32* %83, align 4
  %85 = call i32 (i8*, ...) @printf(i8* getelementptr inbounds ([3 x i8], [3 x i8]* @.str, i64 0, i64 0), i32 %84)
  br label %90

86:                                               ; preds = %72
  br label %87

87:                                               ; preds = %86
  %88 = load i32, i32* %3, align 4
  %89 = add nsw i32 %88, 1
  store i32 %89, i32* %3, align 4
  br label %68

90:                                               ; preds = %79, %68
  %91 = load i32, i32* %4, align 4
  %92 = add nsw i32 %91, 1
  store i32 %92, i32* %3, align 4
  br label %93

93:                                               ; preds = %111, %90
  %94 = load i32, i32* %3, align 4
  %95 = load i32, i32* %1, align 4
  %96 = icmp slt i32 %94, %95
  br i1 %96, label %97, label %114

97:                                               ; preds = %93
  %98 = load i32, i32* %3, align 4
  %99 = sext i32 %98 to i64
  %100 = getelementptr inbounds [300 x double], [300 x double]* %8, i64 0, i64 %99
  %101 = load double, double* %100, align 8
  %102 = load double, double* %6, align 8
  %103 = fcmp oeq double %101, %102
  br i1 %103, label %104, label %110

104:                                              ; preds = %97
  %105 = load i32, i32* %3, align 4
  %106 = sext i32 %105 to i64
  %107 = getelementptr inbounds [300 x i32], [300 x i32]* %2, i64 0, i64 %106
  %108 = load i32, i32* %107, align 4
  %109 = call i32 (i8*, ...) @printf(i8* getelementptr inbounds ([4 x i8], [4 x i8]* @.str.1, i64 0, i64 0), i32 %108)
  br label %110

110:                                              ; preds = %104, %97
  br label %111

111:                                              ; preds = %110
  %112 = load i32, i32* %3, align 4
  %113 = add nsw i32 %112, 1
  store i32 %113, i32* %3, align 4
  br label %93

114:                                              ; preds = %93
  ret void
}

; Function Attrs: argmemonly nounwind willreturn
declare void @llvm.memset.p0i8.i64(i8* nocapture writeonly, i8, i64, i1 immarg) #1

declare dso_local i32 @__isoc99_scanf(i8*, ...) #2

; Function Attrs: nounwind readnone speculatable willreturn
declare double @llvm.fabs.f64(double) #3

declare dso_local i32 @printf(i8*, ...) #2


!llvm.module.flags = !{!0}
!llvm.ident = !{!1}

!0 = !{i32 1, !"wchar_size", i32 4}
!1 = !{!"clang version 10.0.0-4ubuntu1 "}
